ARM GAS  /tmp/cc38trRW.s 			page 1


   1              		.cpu cortex-m3
   2              		.eabi_attribute 20, 1
   3              		.eabi_attribute 21, 1
   4              		.eabi_attribute 23, 3
   5              		.eabi_attribute 24, 1
   6              		.eabi_attribute 25, 1
   7              		.eabi_attribute 26, 1
   8              		.eabi_attribute 30, 1
   9              		.eabi_attribute 34, 1
  10              		.eabi_attribute 18, 4
  11              		.file	"can.c"
  12              		.text
  13              	.Ltext0:
  14              		.cfi_sections	.debug_frame
  15              		.section	.text.MX_CAN_Init,"ax",%progbits
  16              		.align	1
  17              		.global	MX_CAN_Init
  18              		.syntax unified
  19              		.thumb
  20              		.thumb_func
  21              		.fpu softvfp
  23              	MX_CAN_Init:
  24              	.LFB66:
  25              		.file 1 "Src/can.c"
   1:Src/can.c     **** /**
   2:Src/can.c     ****   ******************************************************************************
   3:Src/can.c     ****   * File Name          : CAN.c
   4:Src/can.c     ****   * Description        : This file provides code for the configuration
   5:Src/can.c     ****   *                      of the CAN instances.
   6:Src/can.c     ****   ******************************************************************************
   7:Src/can.c     ****   ** This notice applies to any and all portions of this file
   8:Src/can.c     ****   * that are not between comment pairs USER CODE BEGIN and
   9:Src/can.c     ****   * USER CODE END. Other portions of this file, whether 
  10:Src/can.c     ****   * inserted by the user or by software development tools
  11:Src/can.c     ****   * are owned by their respective copyright owners.
  12:Src/can.c     ****   *
  13:Src/can.c     ****   * COPYRIGHT(c) 2018 STMicroelectronics
  14:Src/can.c     ****   *
  15:Src/can.c     ****   * Redistribution and use in source and binary forms, with or without modification,
  16:Src/can.c     ****   * are permitted provided that the following conditions are met:
  17:Src/can.c     ****   *   1. Redistributions of source code must retain the above copyright notice,
  18:Src/can.c     ****   *      this list of conditions and the following disclaimer.
  19:Src/can.c     ****   *   2. Redistributions in binary form must reproduce the above copyright notice,
  20:Src/can.c     ****   *      this list of conditions and the following disclaimer in the documentation
  21:Src/can.c     ****   *      and/or other materials provided with the distribution.
  22:Src/can.c     ****   *   3. Neither the name of STMicroelectronics nor the names of its contributors
  23:Src/can.c     ****   *      may be used to endorse or promote products derived from this software
  24:Src/can.c     ****   *      without specific prior written permission.
  25:Src/can.c     ****   *
  26:Src/can.c     ****   * THIS SOFTWARE IS PROVIDED BY THE COPYRIGHT HOLDERS AND CONTRIBUTORS "AS IS"
  27:Src/can.c     ****   * AND ANY EXPRESS OR IMPLIED WARRANTIES, INCLUDING, BUT NOT LIMITED TO, THE
  28:Src/can.c     ****   * IMPLIED WARRANTIES OF MERCHANTABILITY AND FITNESS FOR A PARTICULAR PURPOSE ARE
  29:Src/can.c     ****   * DISCLAIMED. IN NO EVENT SHALL THE COPYRIGHT HOLDER OR CONTRIBUTORS BE LIABLE
  30:Src/can.c     ****   * FOR ANY DIRECT, INDIRECT, INCIDENTAL, SPECIAL, EXEMPLARY, OR CONSEQUENTIAL
  31:Src/can.c     ****   * DAMAGES (INCLUDING, BUT NOT LIMITED TO, PROCUREMENT OF SUBSTITUTE GOODS OR
  32:Src/can.c     ****   * SERVICES; LOSS OF USE, DATA, OR PROFITS; OR BUSINESS INTERRUPTION) HOWEVER
  33:Src/can.c     ****   * CAUSED AND ON ANY THEORY OF LIABILITY, WHETHER IN CONTRACT, STRICT LIABILITY,
ARM GAS  /tmp/cc38trRW.s 			page 2


  34:Src/can.c     ****   * OR TORT (INCLUDING NEGLIGENCE OR OTHERWISE) ARISING IN ANY WAY OUT OF THE USE
  35:Src/can.c     ****   * OF THIS SOFTWARE, EVEN IF ADVISED OF THE POSSIBILITY OF SUCH DAMAGE.
  36:Src/can.c     ****   *
  37:Src/can.c     ****   ******************************************************************************
  38:Src/can.c     ****   */
  39:Src/can.c     **** 
  40:Src/can.c     **** /* Includes ------------------------------------------------------------------*/
  41:Src/can.c     **** #include "can.h"
  42:Src/can.c     **** 
  43:Src/can.c     **** #include "gpio.h"
  44:Src/can.c     **** 
  45:Src/can.c     **** /* USER CODE BEGIN 0 */
  46:Src/can.c     **** 
  47:Src/can.c     **** /* USER CODE END 0 */
  48:Src/can.c     **** 
  49:Src/can.c     **** CAN_HandleTypeDef hcan;
  50:Src/can.c     **** 
  51:Src/can.c     **** /* CAN init function */
  52:Src/can.c     **** void MX_CAN_Init(void)
  53:Src/can.c     **** {
  26              		.loc 1 53 0
  27              		.cfi_startproc
  28              		@ args = 0, pretend = 0, frame = 0
  29              		@ frame_needed = 0, uses_anonymous_args = 0
  30 0000 08B5     		push	{r3, lr}
  31              	.LCFI0:
  32              		.cfi_def_cfa_offset 8
  33              		.cfi_offset 3, -8
  34              		.cfi_offset 14, -4
  54:Src/can.c     **** 
  55:Src/can.c     ****   hcan.Instance = CAN1;
  35              		.loc 1 55 0
  36 0002 0C48     		ldr	r0, .L5
  37 0004 0C4B     		ldr	r3, .L5+4
  38 0006 0360     		str	r3, [r0]
  56:Src/can.c     ****   hcan.Init.Prescaler = 16;
  39              		.loc 1 56 0
  40 0008 1023     		movs	r3, #16
  41 000a 4360     		str	r3, [r0, #4]
  57:Src/can.c     ****   hcan.Init.Mode = CAN_MODE_NORMAL;
  42              		.loc 1 57 0
  43 000c 0023     		movs	r3, #0
  44 000e 8360     		str	r3, [r0, #8]
  58:Src/can.c     ****   hcan.Init.SJW = CAN_SJW_1TQ;
  45              		.loc 1 58 0
  46 0010 C360     		str	r3, [r0, #12]
  59:Src/can.c     ****   hcan.Init.BS1 = CAN_BS1_1TQ;
  47              		.loc 1 59 0
  48 0012 0361     		str	r3, [r0, #16]
  60:Src/can.c     ****   hcan.Init.BS2 = CAN_BS2_1TQ;
  49              		.loc 1 60 0
  50 0014 4361     		str	r3, [r0, #20]
  61:Src/can.c     ****   hcan.Init.TTCM = DISABLE;
  51              		.loc 1 61 0
  52 0016 8361     		str	r3, [r0, #24]
  62:Src/can.c     ****   hcan.Init.ABOM = DISABLE;
  53              		.loc 1 62 0
ARM GAS  /tmp/cc38trRW.s 			page 3


  54 0018 C361     		str	r3, [r0, #28]
  63:Src/can.c     ****   hcan.Init.AWUM = DISABLE;
  55              		.loc 1 63 0
  56 001a 0362     		str	r3, [r0, #32]
  64:Src/can.c     ****   hcan.Init.NART = DISABLE;
  57              		.loc 1 64 0
  58 001c 4362     		str	r3, [r0, #36]
  65:Src/can.c     ****   hcan.Init.RFLM = DISABLE;
  59              		.loc 1 65 0
  60 001e 8362     		str	r3, [r0, #40]
  66:Src/can.c     ****   hcan.Init.TXFP = DISABLE;
  61              		.loc 1 66 0
  62 0020 C362     		str	r3, [r0, #44]
  67:Src/can.c     ****   if (HAL_CAN_Init(&hcan) != HAL_OK)
  63              		.loc 1 67 0
  64 0022 FFF7FEFF 		bl	HAL_CAN_Init
  65              	.LVL0:
  66 0026 00B9     		cbnz	r0, .L4
  67              	.L1:
  68:Src/can.c     ****   {
  69:Src/can.c     ****     _Error_Handler(__FILE__, __LINE__);
  70:Src/can.c     ****   }
  71:Src/can.c     **** 
  72:Src/can.c     **** }
  68              		.loc 1 72 0
  69 0028 08BD     		pop	{r3, pc}
  70              	.L4:
  69:Src/can.c     ****   }
  71              		.loc 1 69 0
  72 002a 4521     		movs	r1, #69
  73 002c 0348     		ldr	r0, .L5+8
  74 002e FFF7FEFF 		bl	_Error_Handler
  75              	.LVL1:
  76              		.loc 1 72 0
  77 0032 F9E7     		b	.L1
  78              	.L6:
  79              		.align	2
  80              	.L5:
  81 0034 00000000 		.word	hcan
  82 0038 00640040 		.word	1073767424
  83 003c 00000000 		.word	.LC0
  84              		.cfi_endproc
  85              	.LFE66:
  87              		.section	.text.HAL_CAN_MspInit,"ax",%progbits
  88              		.align	1
  89              		.global	HAL_CAN_MspInit
  90              		.syntax unified
  91              		.thumb
  92              		.thumb_func
  93              		.fpu softvfp
  95              	HAL_CAN_MspInit:
  96              	.LFB67:
  73:Src/can.c     **** 
  74:Src/can.c     **** void HAL_CAN_MspInit(CAN_HandleTypeDef* canHandle)
  75:Src/can.c     **** {
  97              		.loc 1 75 0
  98              		.cfi_startproc
ARM GAS  /tmp/cc38trRW.s 			page 4


  99              		@ args = 0, pretend = 0, frame = 24
 100              		@ frame_needed = 0, uses_anonymous_args = 0
 101              	.LVL2:
  76:Src/can.c     **** 
  77:Src/can.c     ****   GPIO_InitTypeDef GPIO_InitStruct;
  78:Src/can.c     ****   if(canHandle->Instance==CAN1)
 102              		.loc 1 78 0
 103 0000 0268     		ldr	r2, [r0]
 104 0002 144B     		ldr	r3, .L14
 105 0004 9A42     		cmp	r2, r3
 106 0006 00D0     		beq	.L13
 107 0008 7047     		bx	lr
 108              	.L13:
  75:Src/can.c     **** 
 109              		.loc 1 75 0
 110 000a 10B5     		push	{r4, lr}
 111              	.LCFI1:
 112              		.cfi_def_cfa_offset 8
 113              		.cfi_offset 4, -8
 114              		.cfi_offset 14, -4
 115 000c 86B0     		sub	sp, sp, #24
 116              	.LCFI2:
 117              		.cfi_def_cfa_offset 32
 118              	.LBB2:
  79:Src/can.c     ****   {
  80:Src/can.c     ****   /* USER CODE BEGIN CAN1_MspInit 0 */
  81:Src/can.c     **** 
  82:Src/can.c     ****   /* USER CODE END CAN1_MspInit 0 */
  83:Src/can.c     ****     /* CAN1 clock enable */
  84:Src/can.c     ****     __HAL_RCC_CAN1_CLK_ENABLE();
 119              		.loc 1 84 0
 120 000e 03F5D633 		add	r3, r3, #109568
 121 0012 DA69     		ldr	r2, [r3, #28]
 122 0014 42F00072 		orr	r2, r2, #33554432
 123 0018 DA61     		str	r2, [r3, #28]
 124 001a DB69     		ldr	r3, [r3, #28]
 125 001c 03F00073 		and	r3, r3, #33554432
 126 0020 0193     		str	r3, [sp, #4]
 127 0022 019B     		ldr	r3, [sp, #4]
 128              	.LBE2:
  85:Src/can.c     ****   
  86:Src/can.c     ****     /**CAN GPIO Configuration    
  87:Src/can.c     ****     PA11     ------> CAN_RX
  88:Src/can.c     ****     PA12     ------> CAN_TX 
  89:Src/can.c     ****     */
  90:Src/can.c     ****     GPIO_InitStruct.Pin = GPIO_PIN_11;
 129              		.loc 1 90 0
 130 0024 4FF40063 		mov	r3, #2048
 131 0028 0293     		str	r3, [sp, #8]
  91:Src/can.c     ****     GPIO_InitStruct.Mode = GPIO_MODE_INPUT;
 132              		.loc 1 91 0
 133 002a 0023     		movs	r3, #0
 134 002c 0393     		str	r3, [sp, #12]
  92:Src/can.c     ****     GPIO_InitStruct.Pull = GPIO_NOPULL;
 135              		.loc 1 92 0
 136 002e 0493     		str	r3, [sp, #16]
  93:Src/can.c     ****     HAL_GPIO_Init(GPIOA, &GPIO_InitStruct);
ARM GAS  /tmp/cc38trRW.s 			page 5


 137              		.loc 1 93 0
 138 0030 094C     		ldr	r4, .L14+4
 139 0032 02A9     		add	r1, sp, #8
 140 0034 2046     		mov	r0, r4
 141              	.LVL3:
 142 0036 FFF7FEFF 		bl	HAL_GPIO_Init
 143              	.LVL4:
  94:Src/can.c     **** 
  95:Src/can.c     ****     GPIO_InitStruct.Pin = GPIO_PIN_12;
 144              		.loc 1 95 0
 145 003a 4FF48053 		mov	r3, #4096
 146 003e 0293     		str	r3, [sp, #8]
  96:Src/can.c     ****     GPIO_InitStruct.Mode = GPIO_MODE_AF_PP;
 147              		.loc 1 96 0
 148 0040 0223     		movs	r3, #2
 149 0042 0393     		str	r3, [sp, #12]
  97:Src/can.c     ****     GPIO_InitStruct.Speed = GPIO_SPEED_FREQ_HIGH;
 150              		.loc 1 97 0
 151 0044 0323     		movs	r3, #3
 152 0046 0593     		str	r3, [sp, #20]
  98:Src/can.c     ****     HAL_GPIO_Init(GPIOA, &GPIO_InitStruct);
 153              		.loc 1 98 0
 154 0048 02A9     		add	r1, sp, #8
 155 004a 2046     		mov	r0, r4
 156 004c FFF7FEFF 		bl	HAL_GPIO_Init
 157              	.LVL5:
  99:Src/can.c     **** 
 100:Src/can.c     ****   /* USER CODE BEGIN CAN1_MspInit 1 */
 101:Src/can.c     **** 
 102:Src/can.c     ****   /* USER CODE END CAN1_MspInit 1 */
 103:Src/can.c     ****   }
 104:Src/can.c     **** }
 158              		.loc 1 104 0
 159 0050 06B0     		add	sp, sp, #24
 160              	.LCFI3:
 161              		.cfi_def_cfa_offset 8
 162              		@ sp needed
 163 0052 10BD     		pop	{r4, pc}
 164              	.L15:
 165              		.align	2
 166              	.L14:
 167 0054 00640040 		.word	1073767424
 168 0058 00080140 		.word	1073809408
 169              		.cfi_endproc
 170              	.LFE67:
 172              		.section	.text.HAL_CAN_MspDeInit,"ax",%progbits
 173              		.align	1
 174              		.global	HAL_CAN_MspDeInit
 175              		.syntax unified
 176              		.thumb
 177              		.thumb_func
 178              		.fpu softvfp
 180              	HAL_CAN_MspDeInit:
 181              	.LFB68:
 105:Src/can.c     **** 
 106:Src/can.c     **** void HAL_CAN_MspDeInit(CAN_HandleTypeDef* canHandle)
 107:Src/can.c     **** {
ARM GAS  /tmp/cc38trRW.s 			page 6


 182              		.loc 1 107 0
 183              		.cfi_startproc
 184              		@ args = 0, pretend = 0, frame = 0
 185              		@ frame_needed = 0, uses_anonymous_args = 0
 186              	.LVL6:
 187 0000 08B5     		push	{r3, lr}
 188              	.LCFI4:
 189              		.cfi_def_cfa_offset 8
 190              		.cfi_offset 3, -8
 191              		.cfi_offset 14, -4
 108:Src/can.c     **** 
 109:Src/can.c     ****   if(canHandle->Instance==CAN1)
 192              		.loc 1 109 0
 193 0002 0268     		ldr	r2, [r0]
 194 0004 074B     		ldr	r3, .L20
 195 0006 9A42     		cmp	r2, r3
 196 0008 00D0     		beq	.L19
 197              	.LVL7:
 198              	.L16:
 110:Src/can.c     ****   {
 111:Src/can.c     ****   /* USER CODE BEGIN CAN1_MspDeInit 0 */
 112:Src/can.c     **** 
 113:Src/can.c     ****   /* USER CODE END CAN1_MspDeInit 0 */
 114:Src/can.c     ****     /* Peripheral clock disable */
 115:Src/can.c     ****     __HAL_RCC_CAN1_CLK_DISABLE();
 116:Src/can.c     ****   
 117:Src/can.c     ****     /**CAN GPIO Configuration    
 118:Src/can.c     ****     PA11     ------> CAN_RX
 119:Src/can.c     ****     PA12     ------> CAN_TX 
 120:Src/can.c     ****     */
 121:Src/can.c     ****     HAL_GPIO_DeInit(GPIOA, GPIO_PIN_11|GPIO_PIN_12);
 122:Src/can.c     **** 
 123:Src/can.c     ****   /* USER CODE BEGIN CAN1_MspDeInit 1 */
 124:Src/can.c     **** 
 125:Src/can.c     ****   /* USER CODE END CAN1_MspDeInit 1 */
 126:Src/can.c     ****   }
 127:Src/can.c     **** } 
 199              		.loc 1 127 0
 200 000a 08BD     		pop	{r3, pc}
 201              	.LVL8:
 202              	.L19:
 115:Src/can.c     ****   
 203              		.loc 1 115 0
 204 000c 064A     		ldr	r2, .L20+4
 205 000e D369     		ldr	r3, [r2, #28]
 206 0010 23F00073 		bic	r3, r3, #33554432
 207 0014 D361     		str	r3, [r2, #28]
 121:Src/can.c     **** 
 208              		.loc 1 121 0
 209 0016 4FF4C051 		mov	r1, #6144
 210 001a 0448     		ldr	r0, .L20+8
 211              	.LVL9:
 212 001c FFF7FEFF 		bl	HAL_GPIO_DeInit
 213              	.LVL10:
 214              		.loc 1 127 0
 215 0020 F3E7     		b	.L16
 216              	.L21:
ARM GAS  /tmp/cc38trRW.s 			page 7


 217 0022 00BF     		.align	2
 218              	.L20:
 219 0024 00640040 		.word	1073767424
 220 0028 00100240 		.word	1073876992
 221 002c 00080140 		.word	1073809408
 222              		.cfi_endproc
 223              	.LFE68:
 225              		.comm	hcan,68,4
 226              		.section	.rodata.MX_CAN_Init.str1.4,"aMS",%progbits,1
 227              		.align	2
 228              	.LC0:
 229 0000 5372632F 		.ascii	"Src/can.c\000"
 229      63616E2E 
 229      6300
 230              		.text
 231              	.Letext0:
 232              		.file 2 "/usr/bin/gcc-arm-none-eabi-7-2017-q4-major/arm-none-eabi/include/machine/_default_types.h
 233              		.file 3 "/usr/bin/gcc-arm-none-eabi-7-2017-q4-major/arm-none-eabi/include/sys/_stdint.h"
 234              		.file 4 "Drivers/CMSIS/Include/core_cm3.h"
 235              		.file 5 "Drivers/CMSIS/Device/ST/STM32F1xx/Include/system_stm32f1xx.h"
 236              		.file 6 "Drivers/CMSIS/Device/ST/STM32F1xx/Include/stm32f103xb.h"
 237              		.file 7 "/usr/bin/gcc-arm-none-eabi-7-2017-q4-major/arm-none-eabi/include/sys/lock.h"
 238              		.file 8 "/usr/bin/gcc-arm-none-eabi-7-2017-q4-major/arm-none-eabi/include/sys/_types.h"
 239              		.file 9 "/usr/bin/gcc-arm-none-eabi-7-2017-q4-major/lib/gcc/arm-none-eabi/7.2.1/include/stddef.h"
 240              		.file 10 "/usr/bin/gcc-arm-none-eabi-7-2017-q4-major/arm-none-eabi/include/sys/reent.h"
 241              		.file 11 "Drivers/CMSIS/Device/ST/STM32F1xx/Include/stm32f1xx.h"
 242              		.file 12 "Drivers/STM32F1xx_HAL_Driver/Inc/stm32f1xx_hal_def.h"
 243              		.file 13 "Drivers/STM32F1xx_HAL_Driver/Inc/stm32f1xx_hal_gpio.h"
 244              		.file 14 "Drivers/STM32F1xx_HAL_Driver/Inc/stm32f1xx_hal_can.h"
 245              		.file 15 "Src/can.h"
ARM GAS  /tmp/cc38trRW.s 			page 8

