ARM GAS  /tmp/ccbQO4cQ.s 			page 1


   1              		.cpu cortex-m3
   2              		.eabi_attribute 20, 1
   3              		.eabi_attribute 21, 1
   4              		.eabi_attribute 23, 3
   5              		.eabi_attribute 24, 1
   6              		.eabi_attribute 25, 1
   7              		.eabi_attribute 26, 1
   8              		.eabi_attribute 30, 1
   9              		.eabi_attribute 34, 1
  10              		.eabi_attribute 18, 4
  11              		.file	"gpio.c"
  12              		.text
  13              	.Ltext0:
  14              		.cfi_sections	.debug_frame
  15              		.section	.text.MX_GPIO_Init,"ax",%progbits
  16              		.align	1
  17              		.global	MX_GPIO_Init
  18              		.syntax unified
  19              		.thumb
  20              		.thumb_func
  21              		.fpu softvfp
  23              	MX_GPIO_Init:
  24              	.LFB66:
  25              		.file 1 "Src/gpio.c"
   1:Src/gpio.c    **** /**
   2:Src/gpio.c    ****   ******************************************************************************
   3:Src/gpio.c    ****   * File Name          : gpio.c
   4:Src/gpio.c    ****   * Description        : This file provides code for the configuration
   5:Src/gpio.c    ****   *                      of all used GPIO pins.
   6:Src/gpio.c    ****   ******************************************************************************
   7:Src/gpio.c    ****   ** This notice applies to any and all portions of this file
   8:Src/gpio.c    ****   * that are not between comment pairs USER CODE BEGIN and
   9:Src/gpio.c    ****   * USER CODE END. Other portions of this file, whether 
  10:Src/gpio.c    ****   * inserted by the user or by software development tools
  11:Src/gpio.c    ****   * are owned by their respective copyright owners.
  12:Src/gpio.c    ****   *
  13:Src/gpio.c    ****   * COPYRIGHT(c) 2018 STMicroelectronics
  14:Src/gpio.c    ****   *
  15:Src/gpio.c    ****   * Redistribution and use in source and binary forms, with or without modification,
  16:Src/gpio.c    ****   * are permitted provided that the following conditions are met:
  17:Src/gpio.c    ****   *   1. Redistributions of source code must retain the above copyright notice,
  18:Src/gpio.c    ****   *      this list of conditions and the following disclaimer.
  19:Src/gpio.c    ****   *   2. Redistributions in binary form must reproduce the above copyright notice,
  20:Src/gpio.c    ****   *      this list of conditions and the following disclaimer in the documentation
  21:Src/gpio.c    ****   *      and/or other materials provided with the distribution.
  22:Src/gpio.c    ****   *   3. Neither the name of STMicroelectronics nor the names of its contributors
  23:Src/gpio.c    ****   *      may be used to endorse or promote products derived from this software
  24:Src/gpio.c    ****   *      without specific prior written permission.
  25:Src/gpio.c    ****   *
  26:Src/gpio.c    ****   * THIS SOFTWARE IS PROVIDED BY THE COPYRIGHT HOLDERS AND CONTRIBUTORS "AS IS"
  27:Src/gpio.c    ****   * AND ANY EXPRESS OR IMPLIED WARRANTIES, INCLUDING, BUT NOT LIMITED TO, THE
  28:Src/gpio.c    ****   * IMPLIED WARRANTIES OF MERCHANTABILITY AND FITNESS FOR A PARTICULAR PURPOSE ARE
  29:Src/gpio.c    ****   * DISCLAIMED. IN NO EVENT SHALL THE COPYRIGHT HOLDER OR CONTRIBUTORS BE LIABLE
  30:Src/gpio.c    ****   * FOR ANY DIRECT, INDIRECT, INCIDENTAL, SPECIAL, EXEMPLARY, OR CONSEQUENTIAL
  31:Src/gpio.c    ****   * DAMAGES (INCLUDING, BUT NOT LIMITED TO, PROCUREMENT OF SUBSTITUTE GOODS OR
  32:Src/gpio.c    ****   * SERVICES; LOSS OF USE, DATA, OR PROFITS; OR BUSINESS INTERRUPTION) HOWEVER
  33:Src/gpio.c    ****   * CAUSED AND ON ANY THEORY OF LIABILITY, WHETHER IN CONTRACT, STRICT LIABILITY,
ARM GAS  /tmp/ccbQO4cQ.s 			page 2


  34:Src/gpio.c    ****   * OR TORT (INCLUDING NEGLIGENCE OR OTHERWISE) ARISING IN ANY WAY OUT OF THE USE
  35:Src/gpio.c    ****   * OF THIS SOFTWARE, EVEN IF ADVISED OF THE POSSIBILITY OF SUCH DAMAGE.
  36:Src/gpio.c    ****   *
  37:Src/gpio.c    ****   ******************************************************************************
  38:Src/gpio.c    ****   */
  39:Src/gpio.c    **** 
  40:Src/gpio.c    **** /* Includes ------------------------------------------------------------------*/
  41:Src/gpio.c    **** #include "gpio.h"
  42:Src/gpio.c    **** 
  43:Src/gpio.c    **** /* USER CODE BEGIN 0 */
  44:Src/gpio.c    **** 
  45:Src/gpio.c    **** /* USER CODE END 0 */
  46:Src/gpio.c    **** 
  47:Src/gpio.c    **** /*----------------------------------------------------------------------------*/
  48:Src/gpio.c    **** /* Configure GPIO                                                             */
  49:Src/gpio.c    **** /*----------------------------------------------------------------------------*/
  50:Src/gpio.c    **** /* USER CODE BEGIN 1 */
  51:Src/gpio.c    **** 
  52:Src/gpio.c    **** /* USER CODE END 1 */
  53:Src/gpio.c    **** 
  54:Src/gpio.c    **** /** Configure pins as 
  55:Src/gpio.c    ****         * Analog 
  56:Src/gpio.c    ****         * Input 
  57:Src/gpio.c    ****         * Output
  58:Src/gpio.c    ****         * EVENT_OUT
  59:Src/gpio.c    ****         * EXTI
  60:Src/gpio.c    **** */
  61:Src/gpio.c    **** void MX_GPIO_Init(void)
  62:Src/gpio.c    **** {
  26              		.loc 1 62 0
  27              		.cfi_startproc
  28              		@ args = 0, pretend = 0, frame = 32
  29              		@ frame_needed = 0, uses_anonymous_args = 0
  30 0000 10B5     		push	{r4, lr}
  31              	.LCFI0:
  32              		.cfi_def_cfa_offset 8
  33              		.cfi_offset 4, -8
  34              		.cfi_offset 14, -4
  35 0002 88B0     		sub	sp, sp, #32
  36              	.LCFI1:
  37              		.cfi_def_cfa_offset 40
  38              	.LBB2:
  63:Src/gpio.c    **** 
  64:Src/gpio.c    ****    GPIO_InitTypeDef GPIO_InitStruct;
  65:Src/gpio.c    ****   /* GPIO Ports Clock Enable */
  66:Src/gpio.c    ****   __HAL_RCC_GPIOD_CLK_ENABLE();
  39              		.loc 1 66 0
  40 0004 174B     		ldr	r3, .L3
  41 0006 9A69     		ldr	r2, [r3, #24]
  42 0008 42F02002 		orr	r2, r2, #32
  43 000c 9A61     		str	r2, [r3, #24]
  44 000e 9A69     		ldr	r2, [r3, #24]
  45 0010 02F02002 		and	r2, r2, #32
  46 0014 0192     		str	r2, [sp, #4]
  47 0016 019A     		ldr	r2, [sp, #4]
  48              	.LBE2:
  49              	.LBB3:
ARM GAS  /tmp/ccbQO4cQ.s 			page 3


  67:Src/gpio.c    ****   __HAL_RCC_GPIOA_CLK_ENABLE();
  50              		.loc 1 67 0
  51 0018 9A69     		ldr	r2, [r3, #24]
  52 001a 42F00402 		orr	r2, r2, #4
  53 001e 9A61     		str	r2, [r3, #24]
  54 0020 9A69     		ldr	r2, [r3, #24]
  55 0022 02F00402 		and	r2, r2, #4
  56 0026 0292     		str	r2, [sp, #8]
  57 0028 029A     		ldr	r2, [sp, #8]
  58              	.LBE3:
  59              	.LBB4:
  68:Src/gpio.c    ****   __HAL_RCC_GPIOB_CLK_ENABLE();
  60              		.loc 1 68 0
  61 002a 9A69     		ldr	r2, [r3, #24]
  62 002c 42F00802 		orr	r2, r2, #8
  63 0030 9A61     		str	r2, [r3, #24]
  64 0032 9B69     		ldr	r3, [r3, #24]
  65 0034 03F00803 		and	r3, r3, #8
  66 0038 0393     		str	r3, [sp, #12]
  67 003a 039B     		ldr	r3, [sp, #12]
  68              	.LBE4:
  69:Src/gpio.c    **** 
  70:Src/gpio.c    ****   HAL_GPIO_WritePin(LedPort, LedRed|LedGreen, GPIO_PIN_SET);
  69              		.loc 1 70 0
  70 003c 0A4C     		ldr	r4, .L3+4
  71 003e 0122     		movs	r2, #1
  72 0040 3021     		movs	r1, #48
  73 0042 2046     		mov	r0, r4
  74 0044 FFF7FEFF 		bl	HAL_GPIO_WritePin
  75              	.LVL0:
  71:Src/gpio.c    **** 
  72:Src/gpio.c    ****   /*Configure GPIO pins : PB4 PB5 */
  73:Src/gpio.c    ****   GPIO_InitStruct.Pin = LedRed|LedGreen;
  76              		.loc 1 73 0
  77 0048 3023     		movs	r3, #48
  78 004a 0493     		str	r3, [sp, #16]
  74:Src/gpio.c    ****   GPIO_InitStruct.Mode = GPIO_MODE_OUTPUT_PP;
  79              		.loc 1 74 0
  80 004c 0123     		movs	r3, #1
  81 004e 0593     		str	r3, [sp, #20]
  75:Src/gpio.c    ****   GPIO_InitStruct.Pull = GPIO_NOPULL;
  82              		.loc 1 75 0
  83 0050 0023     		movs	r3, #0
  84 0052 0693     		str	r3, [sp, #24]
  76:Src/gpio.c    ****   GPIO_InitStruct.Speed = GPIO_SPEED_FREQ_HIGH;
  85              		.loc 1 76 0
  86 0054 0323     		movs	r3, #3
  87 0056 0793     		str	r3, [sp, #28]
  77:Src/gpio.c    ****   HAL_GPIO_Init(LedPort, &GPIO_InitStruct);
  88              		.loc 1 77 0
  89 0058 04A9     		add	r1, sp, #16
  90 005a 2046     		mov	r0, r4
  91 005c FFF7FEFF 		bl	HAL_GPIO_Init
  92              	.LVL1:
  78:Src/gpio.c    **** 
  79:Src/gpio.c    **** }
  93              		.loc 1 79 0
ARM GAS  /tmp/ccbQO4cQ.s 			page 4


  94 0060 08B0     		add	sp, sp, #32
  95              	.LCFI2:
  96              		.cfi_def_cfa_offset 8
  97              		@ sp needed
  98 0062 10BD     		pop	{r4, pc}
  99              	.L4:
 100              		.align	2
 101              	.L3:
 102 0064 00100240 		.word	1073876992
 103 0068 000C0140 		.word	1073810432
 104              		.cfi_endproc
 105              	.LFE66:
 107              		.text
 108              	.Letext0:
 109              		.file 2 "/usr/bin/gcc-arm-none-eabi-7-2017-q4-major/arm-none-eabi/include/machine/_default_types.h
 110              		.file 3 "/usr/bin/gcc-arm-none-eabi-7-2017-q4-major/arm-none-eabi/include/sys/_stdint.h"
 111              		.file 4 "Drivers/CMSIS/Include/core_cm3.h"
 112              		.file 5 "Drivers/CMSIS/Device/ST/STM32F1xx/Include/system_stm32f1xx.h"
 113              		.file 6 "Drivers/CMSIS/Device/ST/STM32F1xx/Include/stm32f103xb.h"
 114              		.file 7 "/usr/bin/gcc-arm-none-eabi-7-2017-q4-major/arm-none-eabi/include/sys/lock.h"
 115              		.file 8 "/usr/bin/gcc-arm-none-eabi-7-2017-q4-major/arm-none-eabi/include/sys/_types.h"
 116              		.file 9 "/usr/bin/gcc-arm-none-eabi-7-2017-q4-major/lib/gcc/arm-none-eabi/7.2.1/include/stddef.h"
 117              		.file 10 "/usr/bin/gcc-arm-none-eabi-7-2017-q4-major/arm-none-eabi/include/sys/reent.h"
 118              		.file 11 "Drivers/STM32F1xx_HAL_Driver/Inc/stm32f1xx_hal_gpio.h"
ARM GAS  /tmp/ccbQO4cQ.s 			page 5

