ARM GAS  /tmp/ccfZKGC1.s 			page 1


   1              		.cpu cortex-m3
   2              		.eabi_attribute 20, 1
   3              		.eabi_attribute 21, 1
   4              		.eabi_attribute 23, 3
   5              		.eabi_attribute 24, 1
   6              		.eabi_attribute 25, 1
   7              		.eabi_attribute 26, 1
   8              		.eabi_attribute 30, 1
   9              		.eabi_attribute 34, 1
  10              		.eabi_attribute 18, 4
  11              		.file	"tim.c"
  12              		.text
  13              	.Ltext0:
  14              		.cfi_sections	.debug_frame
  15              		.section	.text.HAL_TIM_PWM_MspInit,"ax",%progbits
  16              		.align	1
  17              		.global	HAL_TIM_PWM_MspInit
  18              		.syntax unified
  19              		.thumb
  20              		.thumb_func
  21              		.fpu softvfp
  23              	HAL_TIM_PWM_MspInit:
  24              	.LFB67:
  25              		.file 1 "Src/tim.c"
   1:Src/tim.c     **** /**
   2:Src/tim.c     ****   ******************************************************************************
   3:Src/tim.c     ****   * File Name          : TIM.c
   4:Src/tim.c     ****   * Description        : This file provides code for the configuration
   5:Src/tim.c     ****   *                      of the TIM instances.
   6:Src/tim.c     ****   ******************************************************************************
   7:Src/tim.c     ****   ** This notice applies to any and all portions of this file
   8:Src/tim.c     ****   * that are not between comment pairs USER CODE BEGIN and
   9:Src/tim.c     ****   * USER CODE END. Other portions of this file, whether 
  10:Src/tim.c     ****   * inserted by the user or by software development tools
  11:Src/tim.c     ****   * are owned by their respective copyright owners.
  12:Src/tim.c     ****   *
  13:Src/tim.c     ****   * COPYRIGHT(c) 2018 STMicroelectronics
  14:Src/tim.c     ****   *
  15:Src/tim.c     ****   * Redistribution and use in source and binary forms, with or without modification,
  16:Src/tim.c     ****   * are permitted provided that the following conditions are met:
  17:Src/tim.c     ****   *   1. Redistributions of source code must retain the above copyright notice,
  18:Src/tim.c     ****   *      this list of conditions and the following disclaimer.
  19:Src/tim.c     ****   *   2. Redistributions in binary form must reproduce the above copyright notice,
  20:Src/tim.c     ****   *      this list of conditions and the following disclaimer in the documentation
  21:Src/tim.c     ****   *      and/or other materials provided with the distribution.
  22:Src/tim.c     ****   *   3. Neither the name of STMicroelectronics nor the names of its contributors
  23:Src/tim.c     ****   *      may be used to endorse or promote products derived from this software
  24:Src/tim.c     ****   *      without specific prior written permission.
  25:Src/tim.c     ****   *
  26:Src/tim.c     ****   * THIS SOFTWARE IS PROVIDED BY THE COPYRIGHT HOLDERS AND CONTRIBUTORS "AS IS"
  27:Src/tim.c     ****   * AND ANY EXPRESS OR IMPLIED WARRANTIES, INCLUDING, BUT NOT LIMITED TO, THE
  28:Src/tim.c     ****   * IMPLIED WARRANTIES OF MERCHANTABILITY AND FITNESS FOR A PARTICULAR PURPOSE ARE
  29:Src/tim.c     ****   * DISCLAIMED. IN NO EVENT SHALL THE COPYRIGHT HOLDER OR CONTRIBUTORS BE LIABLE
  30:Src/tim.c     ****   * FOR ANY DIRECT, INDIRECT, INCIDENTAL, SPECIAL, EXEMPLARY, OR CONSEQUENTIAL
  31:Src/tim.c     ****   * DAMAGES (INCLUDING, BUT NOT LIMITED TO, PROCUREMENT OF SUBSTITUTE GOODS OR
  32:Src/tim.c     ****   * SERVICES; LOSS OF USE, DATA, OR PROFITS; OR BUSINESS INTERRUPTION) HOWEVER
  33:Src/tim.c     ****   * CAUSED AND ON ANY THEORY OF LIABILITY, WHETHER IN CONTRACT, STRICT LIABILITY,
ARM GAS  /tmp/ccfZKGC1.s 			page 2


  34:Src/tim.c     ****   * OR TORT (INCLUDING NEGLIGENCE OR OTHERWISE) ARISING IN ANY WAY OUT OF THE USE
  35:Src/tim.c     ****   * OF THIS SOFTWARE, EVEN IF ADVISED OF THE POSSIBILITY OF SUCH DAMAGE.
  36:Src/tim.c     ****   *
  37:Src/tim.c     ****   ******************************************************************************
  38:Src/tim.c     ****   */
  39:Src/tim.c     **** 
  40:Src/tim.c     **** /* Includes ------------------------------------------------------------------*/
  41:Src/tim.c     **** #include "tim.h"
  42:Src/tim.c     **** 
  43:Src/tim.c     **** /* USER CODE BEGIN 0 */
  44:Src/tim.c     **** 
  45:Src/tim.c     **** /* USER CODE END 0 */
  46:Src/tim.c     **** 
  47:Src/tim.c     **** TIM_HandleTypeDef htim3;
  48:Src/tim.c     **** 
  49:Src/tim.c     **** /* TIM4 init function */
  50:Src/tim.c     **** void MX_TIM3_Init(void)
  51:Src/tim.c     **** {
  52:Src/tim.c     ****   TIM_MasterConfigTypeDef sMasterConfig;
  53:Src/tim.c     ****   TIM_OC_InitTypeDef sConfigOC;
  54:Src/tim.c     **** 
  55:Src/tim.c     ****   htim3.Instance = TIM3;
  56:Src/tim.c     ****   htim3.Init.Prescaler = 72-1;
  57:Src/tim.c     ****   htim3.Init.CounterMode = TIM_COUNTERMODE_UP;
  58:Src/tim.c     ****   htim3.Init.Period = 4000-1;
  59:Src/tim.c     ****   htim3.Init.ClockDivision = TIM_CLOCKDIVISION_DIV1;
  60:Src/tim.c     ****   htim3.Init.AutoReloadPreload = TIM_AUTORELOAD_PRELOAD_DISABLE;
  61:Src/tim.c     ****   if (HAL_TIM_PWM_Init(&htim3) != HAL_OK)
  62:Src/tim.c     ****   {
  63:Src/tim.c     ****     _Error_Handler(__FILE__, __LINE__);
  64:Src/tim.c     ****   }
  65:Src/tim.c     **** 
  66:Src/tim.c     ****   sMasterConfig.MasterOutputTrigger = TIM_TRGO_RESET;
  67:Src/tim.c     ****   sMasterConfig.MasterSlaveMode = TIM_MASTERSLAVEMODE_DISABLE;
  68:Src/tim.c     ****   if (HAL_TIMEx_MasterConfigSynchronization(&htim3, &sMasterConfig) != HAL_OK)
  69:Src/tim.c     ****   {
  70:Src/tim.c     ****     _Error_Handler(__FILE__, __LINE__);
  71:Src/tim.c     ****   }
  72:Src/tim.c     **** 
  73:Src/tim.c     ****   sConfigOC.OCMode = TIM_OCMODE_PWM1;
  74:Src/tim.c     ****   sConfigOC.Pulse = 0;
  75:Src/tim.c     ****   sConfigOC.OCPolarity = TIM_OCPOLARITY_HIGH;
  76:Src/tim.c     ****   sConfigOC.OCFastMode = TIM_OCFAST_DISABLE;
  77:Src/tim.c     ****   if (HAL_TIM_PWM_ConfigChannel(&htim3, &sConfigOC, TIM_CHANNEL_4) != HAL_OK)
  78:Src/tim.c     ****   {
  79:Src/tim.c     ****     _Error_Handler(__FILE__, __LINE__);
  80:Src/tim.c     ****   }
  81:Src/tim.c     **** 
  82:Src/tim.c     ****   HAL_TIM_MspPostInit(&htim3);
  83:Src/tim.c     **** 
  84:Src/tim.c     **** }
  85:Src/tim.c     **** 
  86:Src/tim.c     **** void HAL_TIM_PWM_MspInit(TIM_HandleTypeDef* tim_pwmHandle)
  87:Src/tim.c     **** {
  26              		.loc 1 87 0
  27              		.cfi_startproc
  28              		@ args = 0, pretend = 0, frame = 8
ARM GAS  /tmp/ccfZKGC1.s 			page 3


  29              		@ frame_needed = 0, uses_anonymous_args = 0
  30              		@ link register save eliminated.
  31              	.LVL0:
  88:Src/tim.c     **** 
  89:Src/tim.c     ****   if(tim_pwmHandle->Instance==TIM3)
  32              		.loc 1 89 0
  33 0000 0268     		ldr	r2, [r0]
  34 0002 094B     		ldr	r3, .L8
  35 0004 9A42     		cmp	r2, r3
  36 0006 00D0     		beq	.L7
  37 0008 7047     		bx	lr
  38              	.L7:
  87:Src/tim.c     **** 
  39              		.loc 1 87 0
  40 000a 82B0     		sub	sp, sp, #8
  41              	.LCFI0:
  42              		.cfi_def_cfa_offset 8
  43              	.LBB2:
  90:Src/tim.c     ****   {
  91:Src/tim.c     ****   /* USER CODE BEGIN TIM4_MspInit 0 */
  92:Src/tim.c     **** 
  93:Src/tim.c     ****   /* USER CODE END TIM4_MspInit 0 */
  94:Src/tim.c     ****     /* TIM4 clock enable */
  95:Src/tim.c     ****     __HAL_RCC_TIM3_CLK_ENABLE();
  44              		.loc 1 95 0
  45 000c 03F50333 		add	r3, r3, #134144
  46 0010 DA69     		ldr	r2, [r3, #28]
  47 0012 42F00202 		orr	r2, r2, #2
  48 0016 DA61     		str	r2, [r3, #28]
  49 0018 DB69     		ldr	r3, [r3, #28]
  50 001a 03F00203 		and	r3, r3, #2
  51 001e 0193     		str	r3, [sp, #4]
  52 0020 019B     		ldr	r3, [sp, #4]
  53              	.LBE2:
  96:Src/tim.c     ****   /* USER CODE BEGIN TIM4_MspInit 1 */
  97:Src/tim.c     **** 
  98:Src/tim.c     ****   /* USER CODE END TIM4_MspInit 1 */
  99:Src/tim.c     ****   }
 100:Src/tim.c     **** }
  54              		.loc 1 100 0
  55 0022 02B0     		add	sp, sp, #8
  56              	.LCFI1:
  57              		.cfi_def_cfa_offset 0
  58              		@ sp needed
  59 0024 7047     		bx	lr
  60              	.L9:
  61 0026 00BF     		.align	2
  62              	.L8:
  63 0028 00040040 		.word	1073742848
  64              		.cfi_endproc
  65              	.LFE67:
  67              		.section	.text.HAL_TIM_MspPostInit,"ax",%progbits
  68              		.align	1
  69              		.global	HAL_TIM_MspPostInit
  70              		.syntax unified
  71              		.thumb
  72              		.thumb_func
ARM GAS  /tmp/ccfZKGC1.s 			page 4


  73              		.fpu softvfp
  75              	HAL_TIM_MspPostInit:
  76              	.LFB68:
 101:Src/tim.c     **** void HAL_TIM_MspPostInit(TIM_HandleTypeDef* timHandle)
 102:Src/tim.c     **** {
  77              		.loc 1 102 0
  78              		.cfi_startproc
  79              		@ args = 0, pretend = 0, frame = 16
  80              		@ frame_needed = 0, uses_anonymous_args = 0
  81              	.LVL1:
 103:Src/tim.c     **** 
 104:Src/tim.c     ****   GPIO_InitTypeDef GPIO_InitStruct;
 105:Src/tim.c     ****   if(timHandle->Instance==TIM3)
  82              		.loc 1 105 0
  83 0000 0268     		ldr	r2, [r0]
  84 0002 084B     		ldr	r3, .L17
  85 0004 9A42     		cmp	r2, r3
  86 0006 00D0     		beq	.L16
  87 0008 7047     		bx	lr
  88              	.L16:
 102:Src/tim.c     **** 
  89              		.loc 1 102 0
  90 000a 00B5     		push	{lr}
  91              	.LCFI2:
  92              		.cfi_def_cfa_offset 4
  93              		.cfi_offset 14, -4
  94 000c 85B0     		sub	sp, sp, #20
  95              	.LCFI3:
  96              		.cfi_def_cfa_offset 24
 106:Src/tim.c     ****   {
 107:Src/tim.c     ****   /* USER CODE BEGIN TIM4_MspPostInit 0 */
 108:Src/tim.c     **** 
 109:Src/tim.c     ****   /* USER CODE END TIM4_MspPostInit 0 */
 110:Src/tim.c     ****   
 111:Src/tim.c     ****     /**TIM4 GPIO Configuration    
 112:Src/tim.c     ****     PB6     ------> TIM4_CH1 
 113:Src/tim.c     ****     */
 114:Src/tim.c     ****     GPIO_InitStruct.Pin = GPIO_PIN_1;
  97              		.loc 1 114 0
  98 000e 0223     		movs	r3, #2
  99 0010 0093     		str	r3, [sp]
 115:Src/tim.c     ****     GPIO_InitStruct.Mode = GPIO_MODE_AF_PP;
 100              		.loc 1 115 0
 101 0012 0193     		str	r3, [sp, #4]
 116:Src/tim.c     ****     GPIO_InitStruct.Speed = GPIO_SPEED_FREQ_LOW;
 102              		.loc 1 116 0
 103 0014 0393     		str	r3, [sp, #12]
 117:Src/tim.c     ****     HAL_GPIO_Init(GPIOB, &GPIO_InitStruct);
 104              		.loc 1 117 0
 105 0016 6946     		mov	r1, sp
 106 0018 0348     		ldr	r0, .L17+4
 107              	.LVL2:
 108 001a FFF7FEFF 		bl	HAL_GPIO_Init
 109              	.LVL3:
 118:Src/tim.c     **** 
 119:Src/tim.c     ****   /* USER CODE BEGIN TIM4_MspPostInit 1 */
 120:Src/tim.c     **** 
ARM GAS  /tmp/ccfZKGC1.s 			page 5


 121:Src/tim.c     ****   /* USER CODE END TIM4_MspPostInit 1 */
 122:Src/tim.c     ****   }
 123:Src/tim.c     **** 
 124:Src/tim.c     **** }
 110              		.loc 1 124 0
 111 001e 05B0     		add	sp, sp, #20
 112              	.LCFI4:
 113              		.cfi_def_cfa_offset 4
 114              		@ sp needed
 115 0020 5DF804FB 		ldr	pc, [sp], #4
 116              	.L18:
 117              		.align	2
 118              	.L17:
 119 0024 00040040 		.word	1073742848
 120 0028 000C0140 		.word	1073810432
 121              		.cfi_endproc
 122              	.LFE68:
 124              		.section	.text.MX_TIM3_Init,"ax",%progbits
 125              		.align	1
 126              		.global	MX_TIM3_Init
 127              		.syntax unified
 128              		.thumb
 129              		.thumb_func
 130              		.fpu softvfp
 132              	MX_TIM3_Init:
 133              	.LFB66:
  51:Src/tim.c     ****   TIM_MasterConfigTypeDef sMasterConfig;
 134              		.loc 1 51 0
 135              		.cfi_startproc
 136              		@ args = 0, pretend = 0, frame = 40
 137              		@ frame_needed = 0, uses_anonymous_args = 0
 138 0000 00B5     		push	{lr}
 139              	.LCFI5:
 140              		.cfi_def_cfa_offset 4
 141              		.cfi_offset 14, -4
 142 0002 8BB0     		sub	sp, sp, #44
 143              	.LCFI6:
 144              		.cfi_def_cfa_offset 48
  55:Src/tim.c     ****   htim3.Init.Prescaler = 72-1;
 145              		.loc 1 55 0
 146 0004 1B48     		ldr	r0, .L27
 147 0006 1C4B     		ldr	r3, .L27+4
 148 0008 0360     		str	r3, [r0]
  56:Src/tim.c     ****   htim3.Init.CounterMode = TIM_COUNTERMODE_UP;
 149              		.loc 1 56 0
 150 000a 4723     		movs	r3, #71
 151 000c 4360     		str	r3, [r0, #4]
  57:Src/tim.c     ****   htim3.Init.Period = 4000-1;
 152              		.loc 1 57 0
 153 000e 0023     		movs	r3, #0
 154 0010 8360     		str	r3, [r0, #8]
  58:Src/tim.c     ****   htim3.Init.ClockDivision = TIM_CLOCKDIVISION_DIV1;
 155              		.loc 1 58 0
 156 0012 40F69F72 		movw	r2, #3999
 157 0016 C260     		str	r2, [r0, #12]
  59:Src/tim.c     ****   htim3.Init.AutoReloadPreload = TIM_AUTORELOAD_PRELOAD_DISABLE;
 158              		.loc 1 59 0
ARM GAS  /tmp/ccfZKGC1.s 			page 6


 159 0018 0361     		str	r3, [r0, #16]
  60:Src/tim.c     ****   if (HAL_TIM_PWM_Init(&htim3) != HAL_OK)
 160              		.loc 1 60 0
 161 001a 8361     		str	r3, [r0, #24]
  61:Src/tim.c     ****   {
 162              		.loc 1 61 0
 163 001c FFF7FEFF 		bl	HAL_TIM_PWM_Init
 164              	.LVL4:
 165 0020 C8B9     		cbnz	r0, .L24
 166              	.L20:
  66:Src/tim.c     ****   sMasterConfig.MasterSlaveMode = TIM_MASTERSLAVEMODE_DISABLE;
 167              		.loc 1 66 0
 168 0022 0023     		movs	r3, #0
 169 0024 0893     		str	r3, [sp, #32]
  67:Src/tim.c     ****   if (HAL_TIMEx_MasterConfigSynchronization(&htim3, &sMasterConfig) != HAL_OK)
 170              		.loc 1 67 0
 171 0026 0993     		str	r3, [sp, #36]
  68:Src/tim.c     ****   {
 172              		.loc 1 68 0
 173 0028 08A9     		add	r1, sp, #32
 174 002a 1248     		ldr	r0, .L27
 175 002c FFF7FEFF 		bl	HAL_TIMEx_MasterConfigSynchronization
 176              	.LVL5:
 177 0030 B0B9     		cbnz	r0, .L25
 178              	.L21:
  73:Src/tim.c     ****   sConfigOC.Pulse = 0;
 179              		.loc 1 73 0
 180 0032 6023     		movs	r3, #96
 181 0034 0193     		str	r3, [sp, #4]
  74:Src/tim.c     ****   sConfigOC.OCPolarity = TIM_OCPOLARITY_HIGH;
 182              		.loc 1 74 0
 183 0036 0023     		movs	r3, #0
 184 0038 0293     		str	r3, [sp, #8]
  75:Src/tim.c     ****   sConfigOC.OCFastMode = TIM_OCFAST_DISABLE;
 185              		.loc 1 75 0
 186 003a 0393     		str	r3, [sp, #12]
  76:Src/tim.c     ****   if (HAL_TIM_PWM_ConfigChannel(&htim3, &sConfigOC, TIM_CHANNEL_4) != HAL_OK)
 187              		.loc 1 76 0
 188 003c 0593     		str	r3, [sp, #20]
  77:Src/tim.c     ****   {
 189              		.loc 1 77 0
 190 003e 0C22     		movs	r2, #12
 191 0040 01A9     		add	r1, sp, #4
 192 0042 0C48     		ldr	r0, .L27
 193 0044 FFF7FEFF 		bl	HAL_TIM_PWM_ConfigChannel
 194              	.LVL6:
 195 0048 78B9     		cbnz	r0, .L26
 196              	.L22:
  82:Src/tim.c     **** 
 197              		.loc 1 82 0
 198 004a 0A48     		ldr	r0, .L27
 199 004c FFF7FEFF 		bl	HAL_TIM_MspPostInit
 200              	.LVL7:
  84:Src/tim.c     **** 
 201              		.loc 1 84 0
 202 0050 0BB0     		add	sp, sp, #44
 203              	.LCFI7:
ARM GAS  /tmp/ccfZKGC1.s 			page 7


 204              		.cfi_remember_state
 205              		.cfi_def_cfa_offset 4
 206              		@ sp needed
 207 0052 5DF804FB 		ldr	pc, [sp], #4
 208              	.L24:
 209              	.LCFI8:
 210              		.cfi_restore_state
  63:Src/tim.c     ****   }
 211              		.loc 1 63 0
 212 0056 3F21     		movs	r1, #63
 213 0058 0848     		ldr	r0, .L27+8
 214 005a FFF7FEFF 		bl	_Error_Handler
 215              	.LVL8:
 216 005e E0E7     		b	.L20
 217              	.L25:
  70:Src/tim.c     ****   }
 218              		.loc 1 70 0
 219 0060 4621     		movs	r1, #70
 220 0062 0648     		ldr	r0, .L27+8
 221 0064 FFF7FEFF 		bl	_Error_Handler
 222              	.LVL9:
 223 0068 E3E7     		b	.L21
 224              	.L26:
  79:Src/tim.c     ****   }
 225              		.loc 1 79 0
 226 006a 4F21     		movs	r1, #79
 227 006c 0348     		ldr	r0, .L27+8
 228 006e FFF7FEFF 		bl	_Error_Handler
 229              	.LVL10:
 230 0072 EAE7     		b	.L22
 231              	.L28:
 232              		.align	2
 233              	.L27:
 234 0074 00000000 		.word	htim3
 235 0078 00040040 		.word	1073742848
 236 007c 00000000 		.word	.LC0
 237              		.cfi_endproc
 238              	.LFE66:
 240              		.section	.text.HAL_TIM_PWM_MspDeInit,"ax",%progbits
 241              		.align	1
 242              		.global	HAL_TIM_PWM_MspDeInit
 243              		.syntax unified
 244              		.thumb
 245              		.thumb_func
 246              		.fpu softvfp
 248              	HAL_TIM_PWM_MspDeInit:
 249              	.LFB69:
 125:Src/tim.c     **** 
 126:Src/tim.c     **** void HAL_TIM_PWM_MspDeInit(TIM_HandleTypeDef* tim_pwmHandle)
 127:Src/tim.c     **** {
 250              		.loc 1 127 0
 251              		.cfi_startproc
 252              		@ args = 0, pretend = 0, frame = 0
 253              		@ frame_needed = 0, uses_anonymous_args = 0
 254              		@ link register save eliminated.
 255              	.LVL11:
 128:Src/tim.c     **** 
ARM GAS  /tmp/ccfZKGC1.s 			page 8


 129:Src/tim.c     ****   if(tim_pwmHandle->Instance==TIM3)
 256              		.loc 1 129 0
 257 0000 0268     		ldr	r2, [r0]
 258 0002 054B     		ldr	r3, .L32
 259 0004 9A42     		cmp	r2, r3
 260 0006 00D0     		beq	.L31
 261              	.L29:
 130:Src/tim.c     ****   {
 131:Src/tim.c     ****   /* USER CODE BEGIN TIM4_MspDeInit 0 */
 132:Src/tim.c     **** 
 133:Src/tim.c     ****   /* USER CODE END TIM4_MspDeInit 0 */
 134:Src/tim.c     ****     /* Peripheral clock disable */
 135:Src/tim.c     ****     __HAL_RCC_TIM3_CLK_DISABLE();
 136:Src/tim.c     ****   /* USER CODE BEGIN TIM4_MspDeInit 1 */
 137:Src/tim.c     **** 
 138:Src/tim.c     ****   /* USER CODE END TIM4_MspDeInit 1 */
 139:Src/tim.c     ****   }
 140:Src/tim.c     **** } 
 262              		.loc 1 140 0
 263 0008 7047     		bx	lr
 264              	.L31:
 135:Src/tim.c     ****   /* USER CODE BEGIN TIM4_MspDeInit 1 */
 265              		.loc 1 135 0
 266 000a 044A     		ldr	r2, .L32+4
 267 000c D369     		ldr	r3, [r2, #28]
 268 000e 23F00203 		bic	r3, r3, #2
 269 0012 D361     		str	r3, [r2, #28]
 270              		.loc 1 140 0
 271 0014 F8E7     		b	.L29
 272              	.L33:
 273 0016 00BF     		.align	2
 274              	.L32:
 275 0018 00040040 		.word	1073742848
 276 001c 00100240 		.word	1073876992
 277              		.cfi_endproc
 278              	.LFE69:
 280              		.comm	htim3,64,4
 281              		.section	.rodata.MX_TIM3_Init.str1.4,"aMS",%progbits,1
 282              		.align	2
 283              	.LC0:
 284 0000 5372632F 		.ascii	"Src/tim.c\000"
 284      74696D2E 
 284      6300
 285              		.text
 286              	.Letext0:
 287              		.file 2 "/usr/bin/gcc-arm-none-eabi-7-2017-q4-major/arm-none-eabi/include/machine/_default_types.h
 288              		.file 3 "/usr/bin/gcc-arm-none-eabi-7-2017-q4-major/arm-none-eabi/include/sys/_stdint.h"
 289              		.file 4 "Drivers/CMSIS/Include/core_cm3.h"
 290              		.file 5 "Drivers/CMSIS/Device/ST/STM32F1xx/Include/system_stm32f1xx.h"
 291              		.file 6 "Drivers/CMSIS/Device/ST/STM32F1xx/Include/stm32f103xb.h"
 292              		.file 7 "/usr/bin/gcc-arm-none-eabi-7-2017-q4-major/arm-none-eabi/include/sys/lock.h"
 293              		.file 8 "/usr/bin/gcc-arm-none-eabi-7-2017-q4-major/arm-none-eabi/include/sys/_types.h"
 294              		.file 9 "/usr/bin/gcc-arm-none-eabi-7-2017-q4-major/lib/gcc/arm-none-eabi/7.2.1/include/stddef.h"
 295              		.file 10 "/usr/bin/gcc-arm-none-eabi-7-2017-q4-major/arm-none-eabi/include/sys/reent.h"
 296              		.file 11 "Drivers/STM32F1xx_HAL_Driver/Inc/stm32f1xx_hal_def.h"
 297              		.file 12 "Drivers/STM32F1xx_HAL_Driver/Inc/stm32f1xx_hal_gpio.h"
 298              		.file 13 "Drivers/STM32F1xx_HAL_Driver/Inc/stm32f1xx_hal_dma.h"
ARM GAS  /tmp/ccfZKGC1.s 			page 9


 299              		.file 14 "Drivers/STM32F1xx_HAL_Driver/Inc/stm32f1xx_hal_tim.h"
 300              		.file 15 "Drivers/STM32F1xx_HAL_Driver/Inc/stm32f1xx_hal_tim_ex.h"
 301              		.file 16 "Src/tim.h"
ARM GAS  /tmp/ccfZKGC1.s 			page 10

